ccopy_reg
_reconstructor
p1
(ccloudinit.sources.DataSourceEc2
DataSourceEc2
p2
c__builtin__
object
p3
NtRp4
(dp5
S'paths'
p6
g1
(ccloudinit.helpers
Paths
p7
g3
NtRp8
(dp9
S'run_dir'
p10
S'/run/cloud-init'
p11
sS'lookups'
p12
(dp13
S'cloud_config'
p14
S'cloud-config.txt'
p15
sS'vendor_scripts'
p16
S'scripts/vendor'
p17
sS'warnings'
p18
g18
sS'userdata'
p19
S'user-data.txt.i'
p20
sS'handlers'
p21
g21
sS'obj_pkl'
p22
S'obj.pkl'
p23
sS'userdata_raw'
p24
S'user-data.txt'
p25
sS'vendordata_raw'
p26
S'vendor-data.txt'
p27
sS'boothooks'
p28
g28
sS'instance_id'
p29
S'.instance-id'
p30
sS'vendordata'
p31
S'vendor-data.txt.i'
p32
sS'vendor_cloud_config'
p33
S'vendor-cloud-config.txt'
p34
sS'scripts'
p35
g35
sS'sem'
p36
g36
sS'data'
p37
g37
sS'manual_clean_marker'
p38
S'manual-clean'
p39
ssS'template_tpl'
p40
S'/etc/cloud/templates/%s.tmpl'
p41
sS'cfgs'
p42
(dp43
S'cloud_dir'
p44
S'/var/lib/cloud'
p45
sS'templates_dir'
p46
S'/etc/cloud/templates'
p47
ssS'cloud_dir'
p48
g45
sS'datasource'
p49
NsS'upstart_conf_d'
p50
NsS'boot_finished'
p51
S'/var/lib/cloud/instance/boot-finished'
p52
sS'instance_link'
p53
S'/var/lib/cloud/instance'
p54
sS'seed_dir'
p55
S'/var/lib/cloud/seed'
p56
sbsS'metadata_address'
p57
S'http://169.254.169.254'
p58
sS'_cloud_platform'
p59
S'AWS'
p60
sS'_network_config'
p61
(dp62
S'version'
p63
I1
sS'config'
p64
(lp65
(dp66
S'subnets'
p67
(lp68
(dp69
S'type'
p70
S'dhcp4'
p71
sasg70
S'physical'
p72
sS'name'
p73
S'eth0'
p74
sS'mac_address'
p75
S'12:8b:bd:c6:0e:8c'
p76
sassS'sys_cfg'
p77
(dp78
S'paths'
p79
(dp80
S'cloud_dir'
p81
S'/var/lib/cloud'
p82
sS'templates_dir'
p83
S'/etc/cloud/templates'
p84
ssS'network'
p85
(dp86
S'renderers'
p87
NssS'ssh_svcname'
p88
S'sshd'
p89
sS'distro_short'
p90
S'amzn'
p91
sS'default_user'
p92
(dp93
S'shell'
p94
S'/bin/bash'
p95
sS'name'
p96
S'ec2-user'
p97
sS'sudo'
p98
(lp99
S'ALL=(ALL) NOPASSWD:ALL'
p100
asS'lock_passwd'
p101
I01
sS'gecos'
p102
S'EC2 Default User'
p103
sS'groups'
p104
(lp105
S'wheel'
p106
aS'adm'
p107
aS'systemd-journal'
p108
asssg19
(iemail.mime.multipart
MIMEMultipart
p109
(dp110
S'_headers'
p111
(lp112
(S'Content-Type'
p113
S'multipart/mixed; boundary="===============7598043226725962497=="'
tp114
a(S'MIME-Version'
p115
S'1.0'
p116
tp117
a(S'Number-Attachments'
p118
S'1'
tp119
a(g118
S'1'
tp120
asS'_payload'
p121
(lp122
(iemail.mime.base
MIMEBase
p123
(dp124
g111
(lp125
(g115
g116
tp126
a(S'Content-Type'
p127
S'text/x-not-multipart'
tp128
a(S'Content-Disposition'
p129
S'attachment; filename="part-001"'
tp130
asg121
S''
sS'_charset'
p131
NsS'_default_type'
p132
S'text/plain'
p133
sS'preamble'
p134
NsS'defects'
p135
(lp136
sS'_unixfrom'
p137
NsS'epilogue'
p138
Nsbasg131
Nsg132
g133
sg134
Nsg135
(lp139
sg137
Nsg138
Nsbsg31
(iemail.mime.multipart
MIMEMultipart
p140
(dp141
g111
(lp142
(g113
S'multipart/mixed; boundary="===============5909769792433518885=="'
tp143
a(g115
g116
tp144
a(g118
S'1'
tp145
asg121
(lp146
(iemail.mime.base
MIMEBase
p147
(dp148
g111
(lp149
(g115
g116
tp150
a(g127
S'text/x-not-multipart'
tp151
a(g129
S'attachment; filename="part-001"'
tp152
asg121
S''
sg131
Nsg132
g133
sg134
Nsg135
(lp153
sg137
Nsg138
Nsbasg131
Nsg132
g133
sg134
Nsg135
(lp154
sg137
Nsg138
Nsbsg24
S''
sg26
NsS'_cloud_name'
p155
S'aws'
p156
sS'ud_proc'
p157
g1
(ccloudinit.user_data
UserDataProcessor
p158
g3
NtRp159
(dp160
g6
g8
sS'ssl_details'
p161
(dp162
sbsg55
S'/var/lib/cloud/seed/ec2'
p163
sS'ds_cfg'
p164
(dp165
sS'distro'
p166
g1
(ccloudinit.distros.amazon
Distro
p167
g3
NtRp168
(dp169
S'osfamily'
p170
S'redhat'
p171
sS'_paths'
p172
g1
(g7
g3
NtRp173
(dp174
g10
g11
sg12
(dp175
g14
g15
sg16
g17
sg18
g18
sg19
g20
sg21
g21
sg22
g23
sg24
g25
sg26
g27
sg28
g28
sg29
g30
sg31
g32
sg33
g34
sg35
g35
sg36
g36
sg37
g37
sg38
g39
ssg40
S'/etc/cloud/templates/%s.tmpl'
p176
sg42
(dp177
g81
g82
sg83
g84
ssg48
g82
sg49
g4
sg50
Nsg51
S'/var/lib/cloud/instance/boot-finished'
p178
sg53
S'/var/lib/cloud/instance'
p179
sg55
S'/var/lib/cloud/seed'
p180
sbsg73
S'amazon'
p181
sS'_runner'
p182
g1
(ccloudinit.helpers
Runners
p183
g3
NtRp184
(dp185
g6
g173
sS'sems'
p186
(dp187
sbsS'_cfg'
p188
g78
sbsS'_fallback_interface'
p189
g74
sS'identity'
p190
(dp191
VdevpayProductCodes
p192
NsVavailabilityZone
p193
Vus-east-1d
p194
sVinstanceId
p195
Vi-01810bd6547e312e1
p196
sVpendingTime
p197
V2019-02-22T18:43:13Z
p198
sVmarketplaceProductCodes
p199
NsVregion
p200
Vus-east-1
p201
sVimageId
p202
Vami-035be7bafff33b6b6
p203
sVversion
p204
V2017-09-30
p205
sVarchitecture
p206
Vx86_64
p207
sVbillingProducts
p208
NsVkernelId
p209
NsVramdiskId
p210
NsVprivateIp
p211
V172.31.92.21
p212
sVinstanceType
p213
Vt2.micro
p214
sVaccountId
p215
V913779662054
p216
ssS'metadata'
p217
(dp218
S'profile'
p219
S'default-hvm'
p220
sS'reservation-id'
p221
S'r-066681505508d9038'
p222
sS'hostname'
p223
S'ip-172-31-92-21.ec2.internal'
p224
sS'security-groups'
p225
S'launch-wizard-1'
p226
sS'metrics'
p227
(dp228
S'vhostmd'
p229
S'<?xml version="1.0" encoding="UTF-8"?>'
p230
ssS'ami-manifest-path'
p231
S'(unknown)'
p232
sS'mac'
p233
S'12:8b:bd:c6:0e:8c'
p234
sS'public-ipv4'
p235
S'3.95.202.121'
p236
sS'services'
p237
(dp238
S'domain'
p239
S'amazonaws.com'
p240
sS'partition'
p241
S'aws'
p242
ssS'instance-type'
p243
S't2.micro'
p244
sS'instance-id'
p245
S'i-01810bd6547e312e1'
p246
sS'local-ipv4'
p247
S'172.31.92.21'
p248
sS'local-hostname'
p249
S'ip-172-31-92-21.ec2.internal'
p250
sS'placement'
p251
(dp252
S'availability-zone'
p253
S'us-east-1d'
p254
ssS'network'
p255
(dp256
S'interfaces'
p257
(dp258
S'macs'
p259
(dp260
S'12:8b:bd:c6:0e:8c'
p261
(dp262
S'local-hostname'
p263
S'ip-172-31-92-21.ec2.internal'
p264
sS'security-groups'
p265
S'launch-wizard-1'
p266
sS'public-hostname'
p267
S'ec2-3-95-202-121.compute-1.amazonaws.com'
p268
sS'vpc-ipv4-cidr-blocks'
p269
S'172.31.0.0/16'
p270
sS'subnet-id'
p271
S'subnet-bbc4d297'
p272
sS'vpc-ipv4-cidr-block'
p273
S'172.31.0.0/16'
p274
sS'interface-id'
p275
S'eni-0de7fde4a3830f08b'
p276
sS'mac'
p277
S'12:8b:bd:c6:0e:8c'
p278
sS'security-group-ids'
p279
S'sg-0a76624bbfc96979f'
p280
sS'public-ipv4s'
p281
S'3.95.202.121'
p282
sS'owner-id'
p283
S'913779662054'
p284
sS'subnet-ipv4-cidr-block'
p285
S'172.31.80.0/20'
p286
sS'vpc-id'
p287
S'vpc-3bc90d43'
p288
sS'local-ipv4s'
p289
S'172.31.92.21'
p290
sS'device-number'
p291
S'0'
sS'ipv4-associations'
p292
(dp293
S'3.95.202.121'
p294
S'172.31.92.21'
p295
ssssssS'ami-launch-index'
p296
S'0'
sS'public-hostname'
p297
S'ec2-3-95-202-121.compute-1.amazonaws.com'
p298
sS'public-keys'
p299
(dp300
S'wecode'
p301
(lp302
S'ssh-rsa AAAAB3NzaC1yc2EAAAADAQABAAABAQCASiGk9RTDbIvt0PiIxtVBVF2rSi+thHjdUdg4Pw9y8oW7PE7/5PKCsPT52pmZwkkZFhxj2ypcBVBeO1VYtiqZMbeCbk68s0Un5hmtE0y2euI7aqgXjJHG04N3gQV0RjwhP6Uuga2pwVS47C6tVXZGLMdDW08KjqkeM7+xe0okVdxOcfJR/GxOd/fDuTLOcBnMgarYd3KHtFGpOfHD2RsYPyWhTOzhKDXyggZ66r0Iq33NE+xmJotl0rfillIwhD9/0J6ik2xog97qBiGm36mOtTYfD7wRUX8OtVnlbP1r8EGH5qy+MAo+Pei6dddsa56DLzn7/NmzOIh6NiuKbLuz wecode'
p303
assS'ami-id'
p304
S'ami-035be7bafff33b6b6'
p305
sS'instance-action'
p306
S'none'
p307
sS'block-device-mapping'
p308
(dp309
S'ami'
p310
S'/dev/xvda'
p311
sS'root'
p312
S'/dev/xvda'
p313
sssb.